Certificate:
    Data:
        Version: 3 (0x2)
        Serial Number: 1 (0x1)
    Signature Algorithm: sha256WithRSAEncryption
        Issuer: C=US, ST=OR, L=Hillsboro, O=Intel, OU=IotG, CN=IoTG_CA/emailAddress=ambrosin.moreno@intel.com
        Validity
            Not Before: Sep 28 23:25:58 2015 GMT
            Not After : Sep 27 23:25:58 2016 GMT
        Subject: C=US, ST=OR, O=Intel, OU=IoTG, CN=Moreno Ambrosin
        Subject Public Key Info:
            Public Key Algorithm: dsaEncryption
                pub: 
                    42:6e:fa:a7:0f:41:a0:3d:c1:cb:fa:95:3c:25:fd:
                    9b:67:c1:b3:c3:ea:cf:6a:c7:6f:f5:85:f1:4e:bc:
                    4d:c9:2a:42:cf:1a:dd:45:f9:58:6d:ab:5d:aa:a6:
                    52:ae:4e:d2:57:84:89:54:db:06:e6:2d:68:95:bc:
                    96:d9:64:fe:fb:65:ac:66:15:86:58:d2:ec:f2:9d:
                    92:70:bf:11:d2:10:be:2d:20:59:89:aa:46:7d:bd:
                    c2:8c:61:35:5d:52:38:d5:9d:1a:e8:35:4d:e4:04:
                    f0:87:1c:a1:e3:1b:d8:99:8c:72:da:dd:fb:0d:7a:
                    8d:38:21:82:0c:8f:9f:66
                P:   
                    00:fd:7f:53:81:1d:75:12:29:52:df:4a:9c:2e:ec:
                    e4:e7:f6:11:b7:52:3c:ef:44:00:c3:1e:3f:80:b6:
                    51:26:69:45:5d:40:22:51:fb:59:3d:8d:58:fa:bf:
                    c5:f5:ba:30:f6:cb:9b:55:6c:d7:81:3b:80:1d:34:
                    6f:f2:66:60:b7:6b:99:50:a5:a4:9f:9f:e8:04:7b:
                    10:22:c2:4f:bb:a9:d7:fe:b7:c6:1b:f8:3b:57:e7:
                    c6:a8:a6:15:0f:04:fb:83:f6:d3:c5:1e:c3:02:35:
                    54:13:5a:16:91:32:f6:75:f3:ae:2b:61:d7:2a:ef:
                    f2:22:03:19:9d:d1:48:01:c7
                Q:   
                    00:97:60:50:8f:15:23:0b:cc:b2:92:b9:82:a2:eb:
                    84:0b:f0:58:1c:f5
                G:   
                    00:f7:e1:a0:85:d6:9b:3d:de:cb:bc:ab:5c:36:b8:
                    57:b9:79:94:af:bb:fa:3a:ea:82:f9:57:4c:0b:3d:
                    07:82:67:51:59:57:8e:ba:d4:59:4f:e6:71:07:10:
                    81:80:b4:49:16:71:23:e8:4c:28:16:13:b7:cf:09:
                    32:8c:c8:a6:e1:3c:16:7a:8b:54:7c:8d:28:e0:a3:
                    ae:1e:2b:b3:a6:75:91:6e:a3:7f:0b:fa:21:35:62:
                    f1:fb:62:7a:01:24:3b:cc:a4:f1:be:a8:51:90:89:
                    a8:83:df:e1:5a:e5:9f:06:92:8b:66:5e:80:7b:55:
                    25:64:01:4c:3b:fe:cf:49:2a
        X509v3 extensions:
            X509v3 Basic Constraints: 
                CA:FALSE
            Netscape Comment: 
                OpenSSL Generated Certificate
            X509v3 Subject Key Identifier: 
                13:02:33:78:04:DA:CF:F8:A7:94:88:6A:F9:FA:23:D6:74:C2:5A:B5
            X509v3 Authority Key Identifier: 
                keyid:24:2A:F5:74:2D:5D:CC:E6:F7:4E:45:74:90:F7:B9:D6:BC:D5:60:82

    Signature Algorithm: sha256WithRSAEncryption
         36:c3:5b:76:9f:0c:7b:18:11:4a:1d:21:d1:f2:29:1b:aa:68:
         0a:d1:b9:3c:dc:f0:b7:d2:43:cc:37:79:d2:b5:7a:cc:6b:4e:
         15:c1:37:15:74:5e:3f:d2:c2:19:f2:5c:24:be:11:14:d1:c9:
         5e:48:ea:c5:f4:c7:58:02:d0:80:b7:6b:7a:f1:01:a4:99:c9:
         2c:6f:13:b6:3f:8d:79:64:6d:2f:e7:f9:21:98:d6:8a:30:6e:
         46:ed:30:a8:c8:56:c3:5b:b6:17:ab:62:30:38:1b:55:fa:d3:
         fe:5f:3d:11:ed:18:7f:2e:38:00:00:90:37:d5:b6:13:71:e2:
         6b:c4:9b:d0:98:7c:e9:06:29:5a:94:9d:9f:f9:8c:0f:d7:4b:
         59:8e:ab:a8:ff:d7:57:da:e2:ea:30:9f:b2:0d:ab:be:0b:c6:
         20:76:c9:35:4c:77:a2:47:c4:25:0b:09:8c:3d:25:aa:67:e0:
         18:ec:ef:b4:55:85:02:9c:04:70:e7:ed:46:dd:a7:25:51:60:
         41:e3:94:5b:1b:21:95:70:62:db:ca:78:87:a4:8d:a2:c3:ec:
         57:97:3b:52:db:58:f1:b9:92:e1:8f:8e:64:10:4d:58:ff:7f:
         5c:4c:e9:9c:e7:18:53:e7:1f:1d:b1:78:83:4c:b1:6a:5f:a3:
         4c:31:82:cb
-----BEGIN CERTIFICATE-----
MIIEaDCCA1CgAwIBAgIBATANBgkqhkiG9w0BAQsFADCBiTELMAkGA1UEBhMCVVMx
CzAJBgNVBAgMAk9SMRIwEAYDVQQHDAlIaWxsc2Jvcm8xDjAMBgNVBAoMBUludGVs
MQ0wCwYDVQQLDARJb3RHMRAwDgYDVQQDDAdJb1RHX0NBMSgwJgYJKoZIhvcNAQkB
FhlhbWJyb3Npbi5tb3Jlbm9AaW50ZWwuY29tMB4XDTE1MDkyODIzMjU1OFoXDTE2
MDkyNzIzMjU1OFowUzELMAkGA1UEBhMCVVMxCzAJBgNVBAgTAk9SMQ4wDAYDVQQK
EwVJbnRlbDENMAsGA1UECxMESW9URzEYMBYGA1UEAxMPTW9yZW5vIEFtYnJvc2lu
MIIBtzCCASwGByqGSM44BAEwggEfAoGBAP1/U4EddRIpUt9KnC7s5Of2EbdSPO9E
AMMeP4C2USZpRV1AIlH7WT2NWPq/xfW6MPbLm1Vs14E7gB00b/JmYLdrmVClpJ+f
6AR7ECLCT7up1/63xhv4O1fnxqimFQ8E+4P208UewwI1VBNaFpEy9nXzrith1yrv
8iIDGZ3RSAHHAhUAl2BQjxUjC8yykrmCouuEC/BYHPUCgYEA9+GghdabPd7LvKtc
NrhXuXmUr7v6OuqC+VdMCz0HgmdRWVeOutRZT+ZxBxCBgLRJFnEj6EwoFhO3zwky
jMim4TwWeotUfI0o4KOuHiuzpnWRbqN/C/ohNWLx+2J6ASQ7zKTxvqhRkImog9/h
WuWfBpKLZl6Ae1UlZAFMO/7PSSoDgYQAAoGAQm76pw9BoD3By/qVPCX9m2fBs8Pq
z2rHb/WF8U68TckqQs8a3UX5WG2rXaqmUq5O0leEiVTbBuYtaJW8ltlk/vtlrGYV
hljS7PKdknC/EdIQvi0gWYmqRn29woxhNV1SONWdGug1TeQE8IccoeMb2JmMctrd
+w16jTghggyPn2ajezB5MAkGA1UdEwQCMAAwLAYJYIZIAYb4QgENBB8WHU9wZW5T
U0wgR2VuZXJhdGVkIENlcnRpZmljYXRlMB0GA1UdDgQWBBQTAjN4BNrP+KeUiGr5
+iPWdMJatTAfBgNVHSMEGDAWgBQkKvV0LV3M5vdORXSQ97nWvNVggjANBgkqhkiG
9w0BAQsFAAOCAQEANsNbdp8MexgRSh0h0fIpG6poCtG5PNzwt9JDzDd50rV6zGtO
FcE3FXReP9LCGfJcJL4RFNHJXkjqxfTHWALQgLdrevEBpJnJLG8Ttj+NeWRtL+f5
IZjWijBuRu0wqMhWw1u2F6tiMDgbVfrT/l89Ee0Yfy44AACQN9W2E3Hia8Sb0Jh8
6QYpWpSdn/mMD9dLWY6rqP/XV9ri6jCfsg2rvgvGIHbJNUx3okfEJQsJjD0lqmfg
GOzvtFWFApwEcOftRt2nJVFgQeOUWxshlXBi28p4h6SNosPsV5c7UttY8bmS4Y+O
ZBBNWP9/XEzpnOcYU+cfHbF4g0yxal+jTDGCyw==
-----END CERTIFICATE-----
