Certificate:
    Data:
        Version: 3 (0x2)
        Serial Number: 2 (0x2)
    Signature Algorithm: sha256WithRSAEncryption
        Issuer: C=US, ST=OR, L=Hillsboro, O=Intel, OU=IotG, CN=IoTG_CA/emailAddress=ambrosin.moreno@intel.com
        Validity
            Not Before: Oct  5 21:23:48 2015 GMT
            Not After : Oct  4 21:23:48 2016 GMT
        Subject: C=IE, ST=Co. Dublin, O=Progress, OU=Engineering, CN=Alice
        Subject Public Key Info:
            Public Key Algorithm: dsaEncryption
                pub: 
                    00:8c:5f:8b:64:65:c9:6c:d7:8e:03:34:3a:1a:db:
                    20:61:c0:00:4d:4e:48:20:de:5d:6c:c7:20:b6:88:
                    8b:b9:77:45:ee:a2:9f:64:a4:3d:30:f1:20:23:8e:
                    f9:45:0d:de:0e:e0:92:30:18:f8:ce:9a:fd:8b:bb:
                    96:4b:5d:68:ea:11:87:04:09:00:2d:77:91:47:bb:
                    8b:c5:19:9c:b4:a5:89:fe:30:57:28:76:5a:35:8a:
                    69:b8:99:c4:18:3e:3d:8c:ac:b1:1e:bc:0a:d6:0d:
                    c6:ef:17:01:4e:48:ed:42:d2:bb:bc:bc:ef:68:0b:
                    69:ca:c3:db:c6:0f:2d:89:6e
                P:   
                    00:fd:7f:53:81:1d:75:12:29:52:df:4a:9c:2e:ec:
                    e4:e7:f6:11:b7:52:3c:ef:44:00:c3:1e:3f:80:b6:
                    51:26:69:45:5d:40:22:51:fb:59:3d:8d:58:fa:bf:
                    c5:f5:ba:30:f6:cb:9b:55:6c:d7:81:3b:80:1d:34:
                    6f:f2:66:60:b7:6b:99:50:a5:a4:9f:9f:e8:04:7b:
                    10:22:c2:4f:bb:a9:d7:fe:b7:c6:1b:f8:3b:57:e7:
                    c6:a8:a6:15:0f:04:fb:83:f6:d3:c5:1e:c3:02:35:
                    54:13:5a:16:91:32:f6:75:f3:ae:2b:61:d7:2a:ef:
                    f2:22:03:19:9d:d1:48:01:c7
                Q:   
                    00:97:60:50:8f:15:23:0b:cc:b2:92:b9:82:a2:eb:
                    84:0b:f0:58:1c:f5
                G:   
                    00:f7:e1:a0:85:d6:9b:3d:de:cb:bc:ab:5c:36:b8:
                    57:b9:79:94:af:bb:fa:3a:ea:82:f9:57:4c:0b:3d:
                    07:82:67:51:59:57:8e:ba:d4:59:4f:e6:71:07:10:
                    81:80:b4:49:16:71:23:e8:4c:28:16:13:b7:cf:09:
                    32:8c:c8:a6:e1:3c:16:7a:8b:54:7c:8d:28:e0:a3:
                    ae:1e:2b:b3:a6:75:91:6e:a3:7f:0b:fa:21:35:62:
                    f1:fb:62:7a:01:24:3b:cc:a4:f1:be:a8:51:90:89:
                    a8:83:df:e1:5a:e5:9f:06:92:8b:66:5e:80:7b:55:
                    25:64:01:4c:3b:fe:cf:49:2a
        X509v3 extensions:
            X509v3 Basic Constraints: 
                CA:FALSE
            Netscape Comment: 
                OpenSSL Generated Certificate
            X509v3 Subject Key Identifier: 
                56:03:9A:91:C7:A1:D7:36:4D:89:29:16:73:79:8D:45:CC:71:92:45
            X509v3 Authority Key Identifier: 
                keyid:24:2A:F5:74:2D:5D:CC:E6:F7:4E:45:74:90:F7:B9:D6:BC:D5:60:82

    Signature Algorithm: sha256WithRSAEncryption
         7c:b3:df:58:97:f0:9c:01:6c:7a:cf:2c:7d:a1:79:04:05:18:
         0b:c0:a8:cc:ef:4e:95:5e:8f:f5:91:e5:9d:93:53:98:fa:3a:
         4a:e5:4f:27:4d:0c:bf:fd:27:ed:49:96:39:38:39:42:d0:6b:
         76:ec:e5:2f:d6:45:e6:1c:bc:5a:01:24:c5:e8:66:65:c3:1b:
         58:a7:96:71:06:47:4e:be:8e:20:df:b9:d3:c0:f4:e2:45:68:
         30:ce:75:74:8a:26:d0:ff:a9:18:e6:cf:1d:c2:ad:47:76:42:
         d1:a5:4a:31:de:05:5c:ca:57:40:5e:31:09:c9:0e:d0:70:4f:
         df:e6:78:d4:eb:73:aa:2f:01:e5:78:8a:c4:0e:44:bc:83:20:
         af:23:5d:ab:ac:60:4f:5f:8c:b2:a8:45:38:3c:e5:9d:54:b5:
         92:0d:3c:25:b6:5a:1f:55:3b:f0:ae:cb:e3:5f:be:5f:bf:9b:
         78:4b:8c:37:80:bd:1d:2d:56:c6:f0:da:7d:76:66:4b:4c:d9:
         d9:52:d9:01:e5:1b:52:5e:9e:a5:6f:2e:27:e5:30:7b:25:56:
         37:d3:26:d8:f2:8c:cd:e6:f9:59:5d:a7:13:db:fa:5a:b9:29:
         0f:8f:7e:4c:f9:e5:e3:5d:9c:f9:cb:3f:1f:2d:51:e5:9d:b9:
         77:80:ba:32
-----BEGIN CERTIFICATE-----
MIIEcTCCA1mgAwIBAgIBAjANBgkqhkiG9w0BAQsFADCBiTELMAkGA1UEBhMCVVMx
CzAJBgNVBAgMAk9SMRIwEAYDVQQHDAlIaWxsc2Jvcm8xDjAMBgNVBAoMBUludGVs
MQ0wCwYDVQQLDARJb3RHMRAwDgYDVQQDDAdJb1RHX0NBMSgwJgYJKoZIhvcNAQkB
FhlhbWJyb3Npbi5tb3Jlbm9AaW50ZWwuY29tMB4XDTE1MTAwNTIxMjM0OFoXDTE2
MTAwNDIxMjM0OFowWzELMAkGA1UEBhMCSUUxEzARBgNVBAgTCkNvLiBEdWJsaW4x
ETAPBgNVBAoTCFByb2dyZXNzMRQwEgYDVQQLEwtFbmdpbmVlcmluZzEOMAwGA1UE
AxMFQWxpY2UwggG4MIIBLAYHKoZIzjgEATCCAR8CgYEA/X9TgR11EilS30qcLuzk
5/YRt1I870QAwx4/gLZRJmlFXUAiUftZPY1Y+r/F9bow9subVWzXgTuAHTRv8mZg
t2uZUKWkn5/oBHsQIsJPu6nX/rfGG/g7V+fGqKYVDwT7g/bTxR7DAjVUE1oWkTL2
dfOuK2HXKu/yIgMZndFIAccCFQCXYFCPFSMLzLKSuYKi64QL8Fgc9QKBgQD34aCF
1ps93su8q1w2uFe5eZSvu/o66oL5V0wLPQeCZ1FZV4661FlP5nEHEIGAtEkWcSPo
TCgWE7fPCTKMyKbhPBZ6i1R8jSjgo64eK7OmdZFuo38L+iE1YvH7YnoBJDvMpPG+
qFGQiaiD3+Fa5Z8GkotmXoB7VSVkAUw7/s9JKgOBhQACgYEAjF+LZGXJbNeOAzQ6
GtsgYcAATU5IIN5dbMcgtoiLuXdF7qKfZKQ9MPEgI475RQ3eDuCSMBj4zpr9i7uW
S11o6hGHBAkALXeRR7uLxRmctKWJ/jBXKHZaNYppuJnEGD49jKyxHrwK1g3G7xcB
TkjtQtK7vLzvaAtpysPbxg8tiW6jezB5MAkGA1UdEwQCMAAwLAYJYIZIAYb4QgEN
BB8WHU9wZW5TU0wgR2VuZXJhdGVkIENlcnRpZmljYXRlMB0GA1UdDgQWBBRWA5qR
x6HXNk2JKRZzeY1FzHGSRTAfBgNVHSMEGDAWgBQkKvV0LV3M5vdORXSQ97nWvNVg
gjANBgkqhkiG9w0BAQsFAAOCAQEAfLPfWJfwnAFses8sfaF5BAUYC8CozO9OlV6P
9ZHlnZNTmPo6SuVPJ00Mv/0n7UmWOTg5QtBrduzlL9ZF5hy8WgEkxehmZcMbWKeW
cQZHTr6OIN+508D04kVoMM51dIom0P+pGObPHcKtR3ZC0aVKMd4FXMpXQF4xCckO
0HBP3+Z41Otzqi8B5XiKxA5EvIMgryNdq6xgT1+MsqhFODzlnVS1kg08JbZaH1U7
8K7L41++X7+beEuMN4C9HS1WxvDafXZmS0zZ2VLZAeUbUl6epW8uJ+UweyVWN9Mm
2PKMzeb5WV2nE9v6WrkpD49+TPnl412c+cs/Hy1R5Z25d4C6Mg==
-----END CERTIFICATE-----
